target datalayout = "e-m:e-p270:32:32-p271:32:32-p272:64:64-i64:64-i128:128-f80:128-n8:16:32:64-S128"
target triple = "x86_64-pc-linux-gnu"

@.str.5 = private unnamed_addr constant [6 x i8] c"-ERR \00", align 1
@.str.6 = private unnamed_addr constant [3 x i8] c"\0D\0A\00", align 1

; Function Attrs: nounwind uwtable
define dso_local void @addReplyErrorLength(ptr noundef %0, ptr noundef %1, i64 noundef %2) #0 {
  %4 = alloca ptr, align 8
  %5 = alloca ptr, align 8
  %6 = alloca i64, align 8
  store ptr %0, ptr %4, align 8, !tbaa !24
  store ptr %1, ptr %5, align 8, !tbaa !5
  store i64 %2, ptr %6, align 8, !tbaa !20
  %7 = load i64, ptr %6, align 8, !tbaa !20
  %8 = icmp ne i64 %7, 0
  br i1 %8, label %9, label %15

9:                                                ; preds = %3
  %10 = load ptr, ptr %5, align 8, !tbaa !5
  %11 = getelementptr inbounds i8, ptr %10, i64 0
  %12 = load i8, ptr %11, align 1, !tbaa !16
  %13 = sext i8 %12 to i32
  %14 = icmp ne i32 %13, 45
  br i1 %14, label %15, label %17

15:                                               ; preds = %9, %3
  %16 = load ptr, ptr %4, align 8, !tbaa !24
  call void @addReplyProto(ptr noundef %16, ptr noundef @.str.5, i64 noundef 5)
  br label %17

17:                                               ; preds = %15, %9
  %18 = load ptr, ptr %4, align 8, !tbaa !24
  %19 = load ptr, ptr %5, align 8, !tbaa !5
  %20 = load i64, ptr %6, align 8, !tbaa !20
  call void @addReplyProto(ptr noundef %18, ptr noundef %19, i64 noundef %20)
  %21 = load ptr, ptr %4, align 8, !tbaa !24
  call void @addReplyProto(ptr noundef %21, ptr noundef @.str.6, i64 noundef 2)
  ret void
}