; Function Attrs: nounwind uwtable
define dso_local void @addReplyErrorLength(ptr noundef %0, ptr noundef readonly captures(none) %1, i64 noundef %2) local_unnamed_addr #0 {
  %.not = icmp eq i64 %2, 0
  br i1 %.not, label %.split7, label %4

4:                                                ; preds = %3
  %5 = load i8, ptr %1, align 1, !tbaa !12
  %.not8 = icmp eq i8 %5, 45
  br i1 %.not8, label %.split, label %.split7

.split7:                                          ; preds = %4, %3
  tail call void @addReplyProto(ptr noundef %0, ptr noundef nonnull @.str.5, i64 noundef 5)
  br label %.split

.split:                                           ; preds = %4, %.split7
  tail call void @addReplyProto(ptr noundef %0, ptr noundef %1, i64 noundef %2)
  tail call void @addReplyProto(ptr noundef %0, ptr noundef nonnull @.str.6, i64 noundef 2)
  ret void
}